; Function Attrs: mustprogress nounwind uwtable
define hidden void @_ZN23ShenandoahControlThread19handle_requested_gcEN7GCCause5CauseE(ptr noundef nonnull align 8 dereferenceable(1868) %0, i32 noundef %1) local_unnamed_addr #0 align 2 {
  %3 = getelementptr inbounds i8, ptr %0, i64 1624
  tail call void @_ZN5Mutex4lockEv(ptr noundef nonnull align 8 dereferenceable(104) %3) #10
  %4 = tail call noundef i64 @_ZN20ShenandoahController9get_gc_idEv(ptr noundef nonnull align 8 dereferenceable(1728) %0) #10
  %5 = add i64 %4, 1
  %.not6 = icmp eq i64 %4, -1
  br i1 %.not6, label %_ZN13MonitorLockerD2Ev.exit, label %.lr.ph

.lr.ph:                                           ; preds = %2
  %6 = getelementptr inbounds i8, ptr %0, i64 1860
  %7 = getelementptr inbounds i8, ptr %0, i64 1792
  %.not = icmp eq i32 %1, 10
  br i1 %.not, label %.lr.ph.split.us, label %_ZN13MonitorLocker4waitEl.exit

.lr.ph.split.us:                                  ; preds = %.lr.ph, %.lr.ph.split.us
  store i32 10, ptr %6, align 4
  %8 = tail call i8 asm sideeffect "xchgb ($2),$0", "=q,0,r,~{memory},~{dirflag},~{fpsr},~{flags}"(i8 1, ptr nonnull %7) #10, !srcloc !6
  %9 = tail call noundef i64 @_ZN20ShenandoahController9get_gc_idEv(ptr noundef nonnull align 8 dereferenceable(1728) %0) #10
  %10 = icmp ult i64 %9, %5
  br i1 %10, label %.lr.ph.split.us, label %_ZN13MonitorLockerD2Ev.exit, !llvm.loop !13

_ZN13MonitorLocker4waitEl.exit:                   ; preds = %.lr.ph, %_ZN13MonitorLocker4waitEl.exit
  store i32 %1, ptr %6, align 4
  %11 = tail call i8 asm sideeffect "xchgb ($2),$0", "=q,0,r,~{memory},~{dirflag},~{fpsr},~{flags}"(i8 1, ptr nonnull %7) #10, !srcloc !6
  %12 = tail call noundef zeroext i1 @_ZN7Monitor4waitEm(ptr noundef nonnull align 8 dereferenceable(104) %3, i64 noundef 0) #10
  %13 = tail call noundef i64 @_ZN20ShenandoahController9get_gc_idEv(ptr noundef nonnull align 8 dereferenceable(1728) %0) #10
  %14 = icmp ult i64 %13, %5
  br i1 %14, label %_ZN13MonitorLocker4waitEl.exit, label %_ZN13MonitorLockerD2Ev.exit, !llvm.loop !13

_ZN13MonitorLockerD2Ev.exit:                      ; preds = %_ZN13MonitorLocker4waitEl.exit, %.lr.ph.split.us, %2
  tail call void @_ZN5Mutex6unlockEv(ptr noundef nonnull align 8 dereferenceable(104) %3) #10
  ret void
}